target datalayout = "e-m:e-p270:32:32-p271:32:32-p272:64:64-i64:64-i128:128-f80:128-n8:16:32:64-S128"
target triple = "x86_64-pc-linux-gnu"

@hf_zbee_gp_src_id = internal global i32 0, align 4
@hf_zbee_gp_ieee = internal global i32 0, align 4
@hf_zbee_gp_endpoint = internal global i32 0, align 4
@hf_zbee_gp_secur_frame_counter = internal global i32 0, align 4
@hf_zbee_gp_assigned_alias = internal global i32 0, align 4
@hf_zbee_gp_gpd_key = internal global i32 0, align 4
@hf_zbee_gp_groupcast_radius = internal global i32 0, align 4
@hf_zbee_gp_sec_options = internal global i32 0, align 4
@hf_zbee_gp_proxy_tbl_entry_options = internal global i32 0, align 4
@hf_zbee_gp_proxy_tbl_entry_ext_options = internal global i32 0, align 4
@hf_zbee_gp_proxy_tbl_entry_search_counter = internal global i32 0, align 4
@ett_zbee_gp_sec_options = internal global i32 0, align 4
@ett_zbee_gp_proxy_tbl_entry = internal global i32 0, align 4
@ett_zbee_gp_proxy_tbl_entry_options = internal global i32 0, align 4
@ett_zbee_gp_proxy_tbl_entry_ext_options = internal global i32 0, align 4
@dissect_zbee_zcl_gp_proxy_table_entry.n_ext_options = internal constant [2 x ptr] [ptr @hf_zbee_gp_proxy_tbl_entry_ext_options_full_ucast_gps, ptr null], align 16
@dissect_zbee_zcl_gp_proxy_table_entry.n_secur_options = internal constant [3 x ptr] [ptr @hf_zbee_gp_sec_options_sec_level, ptr @hf_zbee_gp_sec_options_sec_key_type, ptr null], align 16
@.str.1758 = private unnamed_addr constant [22 x i8] c"Proxy Table Entry #%d\00", align 1
@.str.1759 = private unnamed_addr constant [30 x i8] c"Lightweight Sink Address list\00", align 1
@.str.1760 = private unnamed_addr constant [15 x i8] c"Sink GroupList\00", align 1
@.str.1761 = private unnamed_addr constant [31 x i8] c"Full unicast Sink Address list\00", align 1

; Function Attrs: inlinehint nounwind null_pointer_is_valid sspstrong uwtable
define internal i32 @ws_ctz(i64 noundef %0) #6 {
  %2 = alloca i64, align 8
  store i64 %0, ptr %2, align 8
  %3 = load i64, ptr %2, align 8
  %4 = call i64 @llvm.cttz.i64(i64 %3, i1 true)
  %5 = trunc i64 %4 to i32
  ret i32 %5
}

; Function Attrs: null_pointer_is_valid sspstrong uwtable
define internal i32 @dissect_zbee_zcl_gp_proxy_table_entry(ptr noundef %0, ptr noundef %1, ptr noundef %2, i32 noundef %3) #0 {
  %5 = alloca i32, align 4
  %6 = alloca ptr, align 8
  %7 = alloca ptr, align 8
  %8 = alloca ptr, align 8
  %9 = alloca i32, align 4
  %10 = alloca i16, align 2
  %11 = alloca i16, align 2
  %12 = alloca i16, align 2
  %13 = alloca ptr, align 8
  %14 = alloca i32, align 4
  store ptr %0, ptr %6, align 8
  store ptr %1, ptr %7, align 8
  store ptr %2, ptr %8, align 8
  store i32 %3, ptr %9, align 4
  call void @llvm.lifetime.start.p0(i64 2, ptr %10) #7
  store i16 0, ptr %10, align 2
  call void @llvm.lifetime.start.p0(i64 2, ptr %11) #7
  store i16 0, ptr %11, align 2
  call void @llvm.lifetime.start.p0(i64 2, ptr %12) #7
  call void @llvm.lifetime.start.p0(i64 8, ptr %13) #7
  %15 = load ptr, ptr %7, align 8
  %16 = load ptr, ptr %6, align 8
  %17 = load ptr, ptr %8, align 8
  %18 = load i32, ptr %17, align 4
  %19 = load i32, ptr @ett_zbee_gp_proxy_tbl_entry, align 4
  %20 = load i32, ptr %9, align 4
  %21 = call ptr (ptr, ptr, i32, i32, i32, ptr, ptr, ...) @proto_tree_add_subtree_format(ptr noundef %15, ptr noundef %16, i32 noundef %18, i32 noundef -1, i32 noundef %19, ptr noundef null, ptr noundef @.str.1758, i32 noundef %20)
  store ptr %21, ptr %13, align 8
  %22 = load ptr, ptr %6, align 8
  %23 = load ptr, ptr %8, align 8
  %24 = load i32, ptr %23, align 4
  %25 = call zeroext i16 @tvb_get_uint16(ptr noundef %22, i32 noundef %24, i32 noundef -2147483648)
  store i16 %25, ptr %10, align 2
  %26 = load ptr, ptr %13, align 8
  %27 = load ptr, ptr %6, align 8
  %28 = load ptr, ptr %8, align 8
  %29 = load i32, ptr %28, align 4
  %30 = load i32, ptr @hf_zbee_gp_proxy_tbl_entry_options, align 4
  %31 = load i32, ptr @ett_zbee_gp_proxy_tbl_entry_options, align 4
  %32 = call ptr @proto_tree_add_bitmask(ptr noundef %26, ptr noundef %27, i32 noundef %29, i32 noundef %30, i32 noundef %31, ptr noundef @dissect_zbee_zcl_gp_proxy_table_entry.n_options, i32 noundef -2147483648)
  %33 = load ptr, ptr %8, align 8
  %34 = load i32, ptr %33, align 4
  %35 = add i32 %34, 2
  store i32 %35, ptr %33, align 4
  %36 = load i16, ptr %10, align 2
  %37 = zext i16 %36 to i32
  %38 = and i32 %37, 7
  %39 = call i32 @ws_ctz(i64 noundef 7)
  %40 = ashr i32 %38, %39
  %41 = trunc i32 %40 to i16
  store i16 %41, ptr %12, align 2
  %42 = load i16, ptr %12, align 2
  %43 = zext i16 %42 to i32
  switch i32 %43, label %73 [
    i32 0, label %44
    i32 2, label %54
  ]

44:                                               ; preds = %4
  %45 = load ptr, ptr %13, align 8
  %46 = load i32, ptr @hf_zbee_gp_src_id, align 4
  %47 = load ptr, ptr %6, align 8
  %48 = load ptr, ptr %8, align 8
  %49 = load i32, ptr %48, align 4
  %50 = call ptr @proto_tree_add_item(ptr noundef %45, i32 noundef %46, ptr noundef %47, i32 noundef %49, i32 noundef 4, i32 noundef -2147483648)
  %51 = load ptr, ptr %8, align 8
  %52 = load i32, ptr %51, align 4
  %53 = add i32 %52, 4
  store i32 %53, ptr %51, align 4
  br label %74

54:                                               ; preds = %4
  %55 = load ptr, ptr %13, align 8
  %56 = load i32, ptr @hf_zbee_gp_ieee, align 4
  %57 = load ptr, ptr %6, align 8
  %58 = load ptr, ptr %8, align 8
  %59 = load i32, ptr %58, align 4
  %60 = call ptr @proto_tree_add_item(ptr noundef %55, i32 noundef %56, ptr noundef %57, i32 noundef %59, i32 noundef 8, i32 noundef -2147483648)
  %61 = load ptr, ptr %8, align 8
  %62 = load i32, ptr %61, align 4
  %63 = add i32 %62, 8
  store i32 %63, ptr %61, align 4
  %64 = load ptr, ptr %13, align 8
  %65 = load i32, ptr @hf_zbee_gp_endpoint, align 4
  %66 = load ptr, ptr %6, align 8
  %67 = load ptr, ptr %8, align 8
  %68 = load i32, ptr %67, align 4
  %69 = call ptr @proto_tree_add_item(ptr noundef %64, i32 noundef %65, ptr noundef %66, i32 noundef %68, i32 noundef 1, i32 noundef 0)
  %70 = load ptr, ptr %8, align 8
  %71 = load i32, ptr %70, align 4
  %72 = add i32 %71, 1
  store i32 %72, ptr %70, align 4
  br label %74

73:                                               ; preds = %4
  store i32 0, ptr %5, align 4
  store i32 1, ptr %14, align 4
  br label %226

74:                                               ; preds = %54, %44
  %75 = load i16, ptr %10, align 2
  %76 = zext i16 %75 to i32
  %77 = and i32 %76, 8192
  %78 = icmp ne i32 %77, 0
  br i1 %78, label %79, label %89

79:                                               ; preds = %74
  %80 = load ptr, ptr %13, align 8
  %81 = load i32, ptr @hf_zbee_gp_assigned_alias, align 4
  %82 = load ptr, ptr %6, align 8
  %83 = load ptr, ptr %8, align 8
  %84 = load i32, ptr %83, align 4
  %85 = call ptr @proto_tree_add_item(ptr noundef %80, i32 noundef %81, ptr noundef %82, i32 noundef %84, i32 noundef 2, i32 noundef -2147483648)
  %86 = load ptr, ptr %8, align 8
  %87 = load i32, ptr %86, align 4
  %88 = add i32 %87, 2
  store i32 %88, ptr %86, align 4
  br label %89

89:                                               ; preds = %79, %74
  %90 = load i16, ptr %10, align 2
  %91 = zext i16 %90 to i32
  %92 = and i32 %91, 16384
  %93 = icmp ne i32 %92, 0
  br i1 %93, label %94, label %105

94:                                               ; preds = %89
  %95 = load ptr, ptr %13, align 8
  %96 = load ptr, ptr %6, align 8
  %97 = load ptr, ptr %8, align 8
  %98 = load i32, ptr %97, align 4
  %99 = load i32, ptr @hf_zbee_gp_sec_options, align 4
  %100 = load i32, ptr @ett_zbee_gp_sec_options, align 4
  %101 = call ptr @proto_tree_add_bitmask(ptr noundef %95, ptr noundef %96, i32 noundef %98, i32 noundef %99, i32 noundef %100, ptr noundef @dissect_zbee_zcl_gp_proxy_table_entry.n_secur_options, i32 noundef 0)
  %102 = load ptr, ptr %8, align 8
  %103 = load i32, ptr %102, align 4
  %104 = add i32 %103, 1
  store i32 %104, ptr %102, align 4
  br label %105

105:                                              ; preds = %94, %89
  %106 = load i16, ptr %10, align 2
  %107 = zext i16 %106 to i32
  %108 = and i32 %107, 16384
  %109 = icmp ne i32 %108, 0
  br i1 %109, label %115, label %110

110:                                              ; preds = %105
  %111 = load i16, ptr %10, align 2
  %112 = zext i16 %111 to i32
  %113 = and i32 %112, 32
  %114 = icmp ne i32 %113, 0
  br i1 %114, label %115, label %125

115:                                              ; preds = %110, %105
  %116 = load ptr, ptr %13, align 8
  %117 = load i32, ptr @hf_zbee_gp_secur_frame_counter, align 4
  %118 = load ptr, ptr %6, align 8
  %119 = load ptr, ptr %8, align 8
  %120 = load i32, ptr %119, align 4
  %121 = call ptr @proto_tree_add_item(ptr noundef %116, i32 noundef %117, ptr noundef %118, i32 noundef %120, i32 noundef 4, i32 noundef -2147483648)
  %122 = load ptr, ptr %8, align 8
  %123 = load i32, ptr %122, align 4
  %124 = add i32 %123, 4
  store i32 %124, ptr %122, align 4
  br label %125

125:                                              ; preds = %115, %110
  %126 = load i16, ptr %10, align 2
  %127 = zext i16 %126 to i32
  %128 = and i32 %127, 16384
  %129 = icmp ne i32 %128, 0
  br i1 %129, label %130, label %140

130:                                              ; preds = %125
  %131 = load ptr, ptr %13, align 8
  %132 = load i32, ptr @hf_zbee_gp_gpd_key, align 4
  %133 = load ptr, ptr %6, align 8
  %134 = load ptr, ptr %8, align 8
  %135 = load i32, ptr %134, align 4
  %136 = call ptr @proto_tree_add_item(ptr noundef %131, i32 noundef %132, ptr noundef %133, i32 noundef %135, i32 noundef 16, i32 noundef 0)
  %137 = load ptr, ptr %8, align 8
  %138 = load i32, ptr %137, align 4
  %139 = add i32 %138, 16
  store i32 %139, ptr %137, align 4
  br label %140

140:                                              ; preds = %130, %125
  %141 = load i16, ptr %10, align 2
  %142 = zext i16 %141 to i32
  %143 = and i32 %142, 64
  %144 = icmp ne i32 %143, 0
  br i1 %144, label %145, label %152

145:                                              ; preds = %140
  %146 = load ptr, ptr %6, align 8
  %147 = load ptr, ptr %13, align 8
  %148 = load ptr, ptr %8, align 8
  %149 = load i32, ptr %148, align 4
  %150 = call i32 @dissect_zbee_zcl_gp_sink_address_list(ptr noundef %146, ptr noundef %147, i32 noundef %149, ptr noundef @.str.1759)
  %151 = load ptr, ptr %8, align 8
  store i32 %150, ptr %151, align 4
  br label %152

152:                                              ; preds = %145, %140
  %153 = load i16, ptr %10, align 2
  %154 = zext i16 %153 to i32
  %155 = and i32 %154, 256
  %156 = icmp ne i32 %155, 0
  br i1 %156, label %157, label %164

157:                                              ; preds = %152
  %158 = load ptr, ptr %6, align 8
  %159 = load ptr, ptr %13, align 8
  %160 = load ptr, ptr %8, align 8
  %161 = load i32, ptr %160, align 4
  %162 = call i32 @dissect_zbee_zcl_gp_group_list(ptr noundef %158, ptr noundef %159, i32 noundef %161, ptr noundef @.str.1760)
  %163 = load ptr, ptr %8, align 8
  store i32 %162, ptr %163, align 4
  br label %164

164:                                              ; preds = %157, %152
  %165 = load ptr, ptr %13, align 8
  %166 = load i32, ptr @hf_zbee_gp_groupcast_radius, align 4
  %167 = load ptr, ptr %6, align 8
  %168 = load ptr, ptr %8, align 8
  %169 = load i32, ptr %168, align 4
  %170 = call ptr @proto_tree_add_item(ptr noundef %165, i32 noundef %166, ptr noundef %167, i32 noundef %169, i32 noundef 1, i32 noundef 0)
  %171 = load ptr, ptr %8, align 8
  %172 = load i32, ptr %171, align 4
  %173 = add i32 %172, 1
  store i32 %173, ptr %171, align 4
  %174 = load i16, ptr %10, align 2
  %175 = zext i16 %174 to i32
  %176 = and i32 %175, 8
  %177 = icmp ne i32 %176, 0
  br i1 %177, label %178, label %183

178:                                              ; preds = %164
  %179 = load i16, ptr %10, align 2
  %180 = zext i16 %179 to i32
  %181 = and i32 %180, 16
  %182 = icmp ne i32 %181, 0
  br i1 %182, label %193, label %183

183:                                              ; preds = %178, %164
  %184 = load ptr, ptr %13, align 8
  %185 = load i32, ptr @hf_zbee_gp_proxy_tbl_entry_search_counter, align 4
  %186 = load ptr, ptr %6, align 8
  %187 = load ptr, ptr %8, align 8
  %188 = load i32, ptr %187, align 4
  %189 = call ptr @proto_tree_add_item(ptr noundef %184, i32 noundef %185, ptr noundef %186, i32 noundef %188, i32 noundef 1, i32 noundef 0)
  %190 = load ptr, ptr %8, align 8
  %191 = load i32, ptr %190, align 4
  %192 = add i32 %191, 1
  store i32 %192, ptr %190, align 4
  br label %193

193:                                              ; preds = %183, %178
  %194 = load i16, ptr %10, align 2
  %195 = zext i16 %194 to i32
  %196 = and i32 %195, 32768
  %197 = icmp ne i32 %196, 0
  br i1 %197, label %198, label %213

198:                                              ; preds = %193
  %199 = load ptr, ptr %6, align 8
  %200 = load ptr, ptr %8, align 8
  %201 = load i32, ptr %200, align 4
  %202 = call zeroext i16 @tvb_get_uint16(ptr noundef %199, i32 noundef %201, i32 noundef -2147483648)
  store i16 %202, ptr %11, align 2
  %203 = load ptr, ptr %13, align 8
  %204 = load ptr, ptr %6, align 8
  %205 = load ptr, ptr %8, align 8
  %206 = load i32, ptr %205, align 4
  %207 = load i32, ptr @hf_zbee_gp_proxy_tbl_entry_ext_options, align 4
  %208 = load i32, ptr @ett_zbee_gp_proxy_tbl_entry_ext_options, align 4
  %209 = call ptr @proto_tree_add_bitmask(ptr noundef %203, ptr noundef %204, i32 noundef %206, i32 noundef %207, i32 noundef %208, ptr noundef @dissect_zbee_zcl_gp_proxy_table_entry.n_ext_options, i32 noundef -2147483648)
  %210 = load ptr, ptr %8, align 8
  %211 = load i32, ptr %210, align 4
  %212 = add i32 %211, 1
  store i32 %212, ptr %210, align 4
  br label %213

213:                                              ; preds = %198, %193
  %214 = load i16, ptr %11, align 2
  %215 = zext i16 %214 to i32
  %216 = and i32 %215, 1
  %217 = icmp ne i32 %216, 0
  br i1 %217, label %218, label %225

218:                                              ; preds = %213
  %219 = load ptr, ptr %6, align 8
  %220 = load ptr, ptr %13, align 8
  %221 = load ptr, ptr %8, align 8
  %222 = load i32, ptr %221, align 4
  %223 = call i32 @dissect_zbee_zcl_gp_sink_address_list(ptr noundef %219, ptr noundef %220, i32 noundef %222, ptr noundef @.str.1761)
  %224 = load ptr, ptr %8, align 8
  store i32 %223, ptr %224, align 4
  br label %225

225:                                              ; preds = %218, %213
  store i32 1, ptr %5, align 4
  store i32 1, ptr %14, align 4
  br label %226

226:                                              ; preds = %225, %73
  call void @llvm.lifetime.end.p0(i64 8, ptr %13) #7
  call void @llvm.lifetime.end.p0(i64 2, ptr %12) #7
  call void @llvm.lifetime.end.p0(i64 2, ptr %11) #7
  call void @llvm.lifetime.end.p0(i64 2, ptr %10) #7
  %227 = load i32, ptr %5, align 4
  ret i32 %227
}