; Function Attrs: null_pointer_is_valid sspstrong uwtable
define internal fastcc range(i32 0, 2) i32 @dissect_zbee_zcl_gp_proxy_table_entry(ptr noundef %0, ptr noundef %1, ptr noundef captures(none) %2, i32 noundef range(i32 0, 510) %3) unnamed_addr #0 {
  %5 = load i32, ptr %2, align 4
  %6 = load i32, ptr @ett_zbee_gp_proxy_tbl_entry, align 4
  %7 = tail call ptr (ptr, ptr, i32, i32, i32, ptr, ptr, ...) @proto_tree_add_subtree_format(ptr noundef %1, ptr noundef %0, i32 noundef %5, i32 noundef -1, i32 noundef %6, ptr noundef null, ptr noundef nonnull @.str.1758, i32 noundef %3)
  %8 = load i32, ptr %2, align 4
  %9 = tail call zeroext i16 @tvb_get_uint16(ptr noundef %0, i32 noundef %8, i32 noundef -2147483648)
  %10 = load i32, ptr %2, align 4
  %11 = load i32, ptr @hf_zbee_gp_proxy_tbl_entry_options, align 4
  %12 = load i32, ptr @ett_zbee_gp_proxy_tbl_entry_options, align 4
  %13 = tail call ptr @proto_tree_add_bitmask(ptr noundef %7, ptr noundef %0, i32 noundef %10, i32 noundef %11, i32 noundef %12, ptr noundef nonnull @dissect_zbee_zcl_gp_proxy_table_entry.n_options, i32 noundef -2147483648)
  %14 = load i32, ptr %2, align 4
  %15 = add i32 %14, 2
  store i32 %15, ptr %2, align 4
  %16 = zext i16 %9 to i32
  %17 = and i32 %16, 7
  switch i32 %17, label %.critedge89 [
    i32 0, label %18
    i32 2, label %21
  ]

18:                                               ; preds = %4
  %19 = load i32, ptr @hf_zbee_gp_src_id, align 4
  %20 = tail call ptr @proto_tree_add_item(ptr noundef %7, i32 noundef %19, ptr noundef %0, i32 noundef %15, i32 noundef 4, i32 noundef -2147483648)
  br label %28

21:                                               ; preds = %4
  %22 = load i32, ptr @hf_zbee_gp_ieee, align 4
  %23 = tail call ptr @proto_tree_add_item(ptr noundef %7, i32 noundef %22, ptr noundef %0, i32 noundef %15, i32 noundef 8, i32 noundef -2147483648)
  %24 = load i32, ptr %2, align 4
  %25 = add i32 %24, 8
  store i32 %25, ptr %2, align 4
  %26 = load i32, ptr @hf_zbee_gp_endpoint, align 4
  %27 = tail call ptr @proto_tree_add_item(ptr noundef %7, i32 noundef %26, ptr noundef %0, i32 noundef %25, i32 noundef 1, i32 noundef 0)
  br label %28

28:                                               ; preds = %21, %18
  %.sink90 = phi i32 [ 1, %21 ], [ 4, %18 ]
  %29 = load i32, ptr %2, align 4
  %30 = add i32 %29, %.sink90
  store i32 %30, ptr %2, align 4
  %31 = and i32 %16, 8192
  %.not = icmp eq i32 %31, 0
  br i1 %.not, label %37, label %32

32:                                               ; preds = %28
  %33 = load i32, ptr @hf_zbee_gp_assigned_alias, align 4
  %34 = tail call ptr @proto_tree_add_item(ptr noundef %7, i32 noundef %33, ptr noundef %0, i32 noundef %30, i32 noundef 2, i32 noundef -2147483648)
  %35 = load i32, ptr %2, align 4
  %36 = add i32 %35, 2
  store i32 %36, ptr %2, align 4
  br label %37

37:                                               ; preds = %32, %28
  %38 = phi i32 [ %36, %32 ], [ %30, %28 ]
  %39 = and i32 %16, 16384
  %.not78 = icmp eq i32 %39, 0
  br i1 %.not78, label %.critedge, label %40

40:                                               ; preds = %37
  %41 = load i32, ptr @hf_zbee_gp_sec_options, align 4
  %42 = load i32, ptr @ett_zbee_gp_sec_options, align 4
  %43 = tail call ptr @proto_tree_add_bitmask(ptr noundef %7, ptr noundef %0, i32 noundef %38, i32 noundef %41, i32 noundef %42, ptr noundef nonnull @dissect_zbee_zcl_gp_proxy_table_entry.n_secur_options, i32 noundef 0)
  %44 = load i32, ptr %2, align 4
  %45 = add i32 %44, 1
  store i32 %45, ptr %2, align 4
  br label %46

.critedge:                                        ; preds = %37
  %.old = and i32 %16, 32
  %.not79.old = icmp eq i32 %.old, 0
  br i1 %.not79.old, label %.thread, label %46

46:                                               ; preds = %.critedge, %40
  %47 = phi i32 [ %38, %.critedge ], [ %45, %40 ]
  %48 = load i32, ptr @hf_zbee_gp_secur_frame_counter, align 4
  %49 = tail call ptr @proto_tree_add_item(ptr noundef %7, i32 noundef %48, ptr noundef %0, i32 noundef %47, i32 noundef 4, i32 noundef -2147483648)
  %50 = load i32, ptr %2, align 4
  %51 = add i32 %50, 4
  store i32 %51, ptr %2, align 4
  br i1 %.not78, label %.thread, label %52

52:                                               ; preds = %46
  %53 = load i32, ptr @hf_zbee_gp_gpd_key, align 4
  %54 = tail call ptr @proto_tree_add_item(ptr noundef %7, i32 noundef %53, ptr noundef %0, i32 noundef %51, i32 noundef 16, i32 noundef 0)
  %55 = load i32, ptr %2, align 4
  %56 = add i32 %55, 16
  store i32 %56, ptr %2, align 4
  br label %.thread

.thread:                                          ; preds = %.critedge, %52, %46
  %57 = phi i32 [ %38, %.critedge ], [ %56, %52 ], [ %51, %46 ]
  %58 = and i32 %16, 64
  %.not80 = icmp eq i32 %58, 0
  br i1 %.not80, label %61, label %59

59:                                               ; preds = %.thread
  %60 = tail call fastcc i32 @dissect_zbee_zcl_gp_sink_address_list(ptr noundef %0, ptr noundef %7, i32 noundef %57, ptr noundef nonnull @.str.1759)
  store i32 %60, ptr %2, align 4
  br label %61

61:                                               ; preds = %59, %.thread
  %62 = phi i32 [ %60, %59 ], [ %57, %.thread ]
  %63 = and i32 %16, 256
  %.not81 = icmp eq i32 %63, 0
  br i1 %.not81, label %66, label %64

64:                                               ; preds = %61
  %65 = tail call fastcc i32 @dissect_zbee_zcl_gp_group_list(ptr noundef %0, ptr noundef %7, i32 noundef %62, ptr noundef nonnull @.str.1760)
  store i32 %65, ptr %2, align 4
  br label %66

66:                                               ; preds = %64, %61
  %67 = phi i32 [ %65, %64 ], [ %62, %61 ]
  %68 = load i32, ptr @hf_zbee_gp_groupcast_radius, align 4
  %69 = tail call ptr @proto_tree_add_item(ptr noundef %7, i32 noundef %68, ptr noundef %0, i32 noundef %67, i32 noundef 1, i32 noundef 0)
  %70 = load i32, ptr %2, align 4
  %71 = add i32 %70, 1
  store i32 %71, ptr %2, align 4
  %72 = and i32 %16, 24
  %or.cond87.not = icmp eq i32 %72, 24
  br i1 %or.cond87.not, label %78, label %73

73:                                               ; preds = %66
  %74 = load i32, ptr @hf_zbee_gp_proxy_tbl_entry_search_counter, align 4
  %75 = tail call ptr @proto_tree_add_item(ptr noundef %7, i32 noundef %74, ptr noundef %0, i32 noundef %71, i32 noundef 1, i32 noundef 0)
  %76 = load i32, ptr %2, align 4
  %77 = add i32 %76, 1
  store i32 %77, ptr %2, align 4
  br label %78

78:                                               ; preds = %66, %73
  %79 = phi i32 [ %71, %66 ], [ %77, %73 ]
  %.not84 = icmp sgt i16 %9, -1
  br i1 %.not84, label %.critedge89, label %80

80:                                               ; preds = %78
  %81 = tail call zeroext i16 @tvb_get_uint16(ptr noundef %0, i32 noundef %79, i32 noundef -2147483648)
  %82 = load i32, ptr %2, align 4
  %83 = load i32, ptr @hf_zbee_gp_proxy_tbl_entry_ext_options, align 4
  %84 = load i32, ptr @ett_zbee_gp_proxy_tbl_entry_ext_options, align 4
  %85 = tail call ptr @proto_tree_add_bitmask(ptr noundef %7, ptr noundef %0, i32 noundef %82, i32 noundef %83, i32 noundef %84, ptr noundef nonnull @dissect_zbee_zcl_gp_proxy_table_entry.n_ext_options, i32 noundef -2147483648)
  %86 = load i32, ptr %2, align 4
  %87 = add i32 %86, 1
  store i32 %87, ptr %2, align 4
  %88 = and i16 %81, 1
  %89 = icmp eq i16 %88, 0
  br i1 %89, label %.critedge89, label %90

90:                                               ; preds = %80
  %91 = tail call fastcc i32 @dissect_zbee_zcl_gp_sink_address_list(ptr noundef %0, ptr noundef %7, i32 noundef %87, ptr noundef nonnull @.str.1761)
  store i32 %91, ptr %2, align 4
  br label %.critedge89

.critedge89:                                      ; preds = %80, %90, %78, %4
  %.0 = phi i32 [ 0, %4 ], [ 1, %78 ], [ 1, %90 ], [ 1, %80 ]
  ret i32 %.0
}